target datalayout = "e-m:e-p270:32:32-p271:32:32-p272:64:64-i64:64-i128:128-f80:128-n8:16:32:64-S128"
target triple = "x86_64-pc-linux-gnu"

%struct.H5C_class_t = type { i32, ptr, i32, i32, ptr, ptr, ptr, ptr, ptr, ptr, ptr, ptr, ptr, ptr }
%struct.H5FA_hdr_t = type { %struct.H5C_cache_entry_t, %struct.H5FA_create_t, i64, %struct.H5FA_stat_t, i64, i64, i64, ptr, i64, i8, i64, i64, ptr, i8, ptr, ptr }
%struct.H5C_cache_entry_t = type { ptr, i64, i64, ptr, i8, ptr, i8, i8, i8, i8, i32, i8, i8, i8, i8, i8, i32, ptr, i32, i32, i32, i32, i32, i8, i8, ptr, ptr, ptr, ptr, ptr, ptr, i8, i32, i8, i64, ptr, i64, i64, i32, i8, i32, i32, i8, ptr, ptr, ptr }
%struct.H5FA_create_t = type { ptr, i8, i8, i64 }
%struct.H5FA_stat_t = type { i64, i64, i64 }
%struct.H5FA_hdr_cache_ud_t = type { ptr, i64, ptr }

@H5FA_init_g = external global i8, align 1
@H5_libterm_g = external global i8, align 1
@.str = private unnamed_addr constant [101 x i8] c"generated/home/dtcxzyw/WorkSpace/Projects/compilers/llvm-opt-benchmark/bench/hdf5/hdf5/src/H5FAhdr.c\00", align 1
@H5E_FARRAY_g = external global i64, align 8
@H5E_CANTCREATE_g = external global i64, align 8
@.str.6 = private unnamed_addr constant [37 x i8] c"can't create fixed array entry proxy\00", align 1
@H5AC_FARRAY_HDR = external constant [1 x %struct.H5C_class_t], align 16
@H5E_CANTSET_g = external global i64, align 8
@.str.8 = private unnamed_addr constant [56 x i8] c"unable to add fixed array entry as child of array proxy\00", align 1
@__func__.H5FA__hdr_protect = private unnamed_addr constant [18 x i8] c"H5FA__hdr_protect\00", align 1
@H5E_CANTPROTECT_g = external global i64, align 8
@.str.15 = private unnamed_addr constant [53 x i8] c"unable to protect fixed array header, address = %llu\00", align 1

; Function Attrs: nounwind uwtable
define ptr @H5FA__hdr_protect(ptr noundef %0, i64 noundef %1, ptr noundef %2, i32 noundef %3) #0 {
  %5 = alloca ptr, align 8
  %6 = alloca i64, align 8
  %7 = alloca ptr, align 8
  %8 = alloca i32, align 4
  %9 = alloca ptr, align 8
  %10 = alloca %struct.H5FA_hdr_cache_ud_t, align 8
  %11 = alloca ptr, align 8
  %12 = alloca i8, align 1
  store ptr %0, ptr %5, align 8, !tbaa !3
  store i64 %1, ptr %6, align 8, !tbaa !14
  store ptr %2, ptr %7, align 8, !tbaa !41
  store i32 %3, ptr %8, align 4, !tbaa !34
  call void @llvm.lifetime.start.p0(i64 8, ptr %9) #5
  call void @llvm.lifetime.start.p0(i64 24, ptr %10) #5
  call void @llvm.lifetime.start.p0(i64 8, ptr %11) #5
  store ptr null, ptr %11, align 8, !tbaa !8
  call void @llvm.lifetime.start.p0(i64 1, ptr %12) #5
  store i8 0, ptr %12, align 1, !tbaa !10
  %13 = load i8, ptr @H5FA_init_g, align 1, !tbaa !10, !range !12, !noundef !13
  %14 = trunc i8 %13 to i1
  br i1 %14, label %19, label %15

15:                                               ; preds = %4
  %16 = load i8, ptr @H5_libterm_g, align 1, !tbaa !10, !range !12, !noundef !13
  %17 = trunc i8 %16 to i1
  %18 = xor i1 %17, true
  br label %19

19:                                               ; preds = %15, %4
  %20 = phi i1 [ true, %4 ], [ %18, %15 ]
  %21 = xor i1 %20, true
  %22 = xor i1 %21, true
  %23 = zext i1 %22 to i32
  %24 = sext i32 %23 to i64
  %25 = call i64 @llvm.expect.i64(i64 %24, i64 1)
  %26 = icmp ne i64 %25, 0
  br i1 %26, label %27, label %127

27:                                               ; preds = %19
  %28 = load ptr, ptr %5, align 8, !tbaa !3
  %29 = getelementptr inbounds nuw %struct.H5FA_hdr_cache_ud_t, ptr %10, i32 0, i32 0
  store ptr %28, ptr %29, align 8, !tbaa !52
  %30 = load i64, ptr %6, align 8, !tbaa !14
  %31 = getelementptr inbounds nuw %struct.H5FA_hdr_cache_ud_t, ptr %10, i32 0, i32 1
  store i64 %30, ptr %31, align 8, !tbaa !54
  %32 = load ptr, ptr %7, align 8, !tbaa !41
  %33 = getelementptr inbounds nuw %struct.H5FA_hdr_cache_ud_t, ptr %10, i32 0, i32 2
  store ptr %32, ptr %33, align 8, !tbaa !55
  %34 = load ptr, ptr %5, align 8, !tbaa !3
  %35 = load i64, ptr %6, align 8, !tbaa !14
  %36 = load i32, ptr %8, align 4, !tbaa !34
  %37 = call ptr @H5AC_protect(ptr noundef %34, ptr noundef @H5AC_FARRAY_HDR, i64 noundef %35, ptr noundef %10, i32 noundef %36)
  store ptr %37, ptr %9, align 8, !tbaa !8
  %38 = icmp eq ptr null, %37
  br i1 %38, label %39, label %59

39:                                               ; preds = %27
  br label %40

40:                                               ; preds = %39
  br label %41

41:                                               ; preds = %40
  br label %42

42:                                               ; preds = %41
  %43 = load i64, ptr @H5E_FARRAY_g, align 8, !tbaa !14
  %44 = load i64, ptr @H5E_CANTPROTECT_g, align 8, !tbaa !14
  %45 = load i64, ptr %6, align 8, !tbaa !14
  %46 = call i32 (ptr, ptr, i32, i64, i64, ptr, ...) @H5E_printf_stack(ptr noundef @.str, ptr noundef @__func__.H5FA__hdr_protect, i32 noundef 425, i64 noundef %43, i64 noundef %44, ptr noundef @.str.15, i64 noundef %45)
  br label %47

47:                                               ; preds = %42
  br label %48

48:                                               ; preds = %47
  store i8 1, ptr %12, align 1, !tbaa !10
  %49 = load i8, ptr %12, align 1, !tbaa !10, !range !12, !noundef !13
  %50 = trunc i8 %49 to i1
  %51 = zext i1 %50 to i8
  store i8 %51, ptr %12, align 1, !tbaa !10
  br label %52

52:                                               ; preds = %48
  br label %53

53:                                               ; preds = %52
  br label %54

54:                                               ; preds = %53
  store ptr null, ptr %11, align 8, !tbaa !8
  br label %126

55:                                               ; No predecessors!
  br label %56

56:                                               ; preds = %55
  br label %57

57:                                               ; preds = %56
  br label %58

58:                                               ; preds = %57
  br label %59

59:                                               ; preds = %58, %27
  %60 = load ptr, ptr %5, align 8, !tbaa !3
  %61 = load ptr, ptr %9, align 8, !tbaa !8
  %62 = getelementptr inbounds nuw %struct.H5FA_hdr_t, ptr %61, i32 0, i32 7
  store ptr %60, ptr %62, align 8, !tbaa !30
  %63 = load ptr, ptr %9, align 8, !tbaa !8
  %64 = getelementptr inbounds nuw %struct.H5FA_hdr_t, ptr %63, i32 0, i32 13
  %65 = load i8, ptr %64, align 8, !tbaa !31, !range !12, !noundef !13
  %66 = trunc i8 %65 to i1
  br i1 %66, label %67, label %124

67:                                               ; preds = %59
  %68 = load ptr, ptr %9, align 8, !tbaa !8
  %69 = getelementptr inbounds nuw %struct.H5FA_hdr_t, ptr %68, i32 0, i32 14
  %70 = load ptr, ptr %69, align 8, !tbaa !40
  %71 = icmp eq ptr null, %70
  br i1 %71, label %72, label %124

72:                                               ; preds = %67
  %73 = call ptr @H5AC_proxy_entry_create()
  %74 = load ptr, ptr %9, align 8, !tbaa !8
  %75 = getelementptr inbounds nuw %struct.H5FA_hdr_t, ptr %74, i32 0, i32 14
  store ptr %73, ptr %75, align 8, !tbaa !40
  %76 = icmp eq ptr null, %73
  br i1 %76, label %77, label %96

77:                                               ; preds = %72
  br label %78

78:                                               ; preds = %77
  br label %79

79:                                               ; preds = %78
  br label %80

80:                                               ; preds = %79
  %81 = load i64, ptr @H5E_FARRAY_g, align 8, !tbaa !14
  %82 = load i64, ptr @H5E_CANTCREATE_g, align 8, !tbaa !14
  %83 = call i32 (ptr, ptr, i32, i64, i64, ptr, ...) @H5E_printf_stack(ptr noundef @.str, ptr noundef @__func__.H5FA__hdr_protect, i32 noundef 432, i64 noundef %81, i64 noundef %82, ptr noundef @.str.6)
  br label %84

84:                                               ; preds = %80
  br label %85

85:                                               ; preds = %84
  store i8 1, ptr %12, align 1, !tbaa !10
  %86 = load i8, ptr %12, align 1, !tbaa !10, !range !12, !noundef !13
  %87 = trunc i8 %86 to i1
  %88 = zext i1 %87 to i8
  store i8 %88, ptr %12, align 1, !tbaa !10
  br label %89

89:                                               ; preds = %85
  br label %90

90:                                               ; preds = %89
  br label %91

91:                                               ; preds = %90
  store ptr null, ptr %11, align 8, !tbaa !8
  br label %126

92:                                               ; No predecessors!
  br label %93

93:                                               ; preds = %92
  br label %94

94:                                               ; preds = %93
  br label %95

95:                                               ; preds = %94
  br label %96

96:                                               ; preds = %95, %72
  %97 = load ptr, ptr %9, align 8, !tbaa !8
  %98 = getelementptr inbounds nuw %struct.H5FA_hdr_t, ptr %97, i32 0, i32 14
  %99 = load ptr, ptr %98, align 8, !tbaa !40
  %100 = load ptr, ptr %5, align 8, !tbaa !3
  %101 = load ptr, ptr %9, align 8, !tbaa !8
  %102 = call i32 @H5AC_proxy_entry_add_child(ptr noundef %99, ptr noundef %100, ptr noundef %101)
  %103 = icmp slt i32 %102, 0
  br i1 %103, label %104, label %123

104:                                              ; preds = %96
  br label %105

105:                                              ; preds = %104
  br label %106

106:                                              ; preds = %105
  br label %107

107:                                              ; preds = %106
  %108 = load i64, ptr @H5E_FARRAY_g, align 8, !tbaa !14
  %109 = load i64, ptr @H5E_CANTSET_g, align 8, !tbaa !14
  %110 = call i32 (ptr, ptr, i32, i64, i64, ptr, ...) @H5E_printf_stack(ptr noundef @.str, ptr noundef @__func__.H5FA__hdr_protect, i32 noundef 437, i64 noundef %108, i64 noundef %109, ptr noundef @.str.8)
  br label %111

111:                                              ; preds = %107
  br label %112

112:                                              ; preds = %111
  store i8 1, ptr %12, align 1, !tbaa !10
  %113 = load i8, ptr %12, align 1, !tbaa !10, !range !12, !noundef !13
  %114 = trunc i8 %113 to i1
  %115 = zext i1 %114 to i8
  store i8 %115, ptr %12, align 1, !tbaa !10
  br label %116

116:                                              ; preds = %112
  br label %117

117:                                              ; preds = %116
  br label %118

118:                                              ; preds = %117
  store ptr null, ptr %11, align 8, !tbaa !8
  br label %126

119:                                              ; No predecessors!
  br label %120

120:                                              ; preds = %119
  br label %121

121:                                              ; preds = %120
  br label %122

122:                                              ; preds = %121
  br label %123

123:                                              ; preds = %122, %96
  br label %124

124:                                              ; preds = %123, %67, %59
  %125 = load ptr, ptr %9, align 8, !tbaa !8
  store ptr %125, ptr %11, align 8, !tbaa !8
  br label %126

126:                                              ; preds = %124, %118, %91, %54
  br label %127

127:                                              ; preds = %126, %19
  %128 = load ptr, ptr %11, align 8, !tbaa !8
  call void @llvm.lifetime.end.p0(i64 1, ptr %12) #5
  call void @llvm.lifetime.end.p0(i64 8, ptr %11) #5
  call void @llvm.lifetime.end.p0(i64 24, ptr %10) #5
  call void @llvm.lifetime.end.p0(i64 8, ptr %9) #5
  ret ptr %128
}