; Function Attrs: nounwind uwtable
define ptr @H5FA__hdr_protect(ptr noundef %0, i64 noundef %1, ptr noundef %2, i32 noundef %3) local_unnamed_addr #0 {
  %5 = alloca %struct.H5FA_hdr_cache_ud_t, align 8
  call void @llvm.lifetime.start.p0(i64 24, ptr nonnull %5) #5
  %6 = load i8, ptr @H5FA_init_g, align 1, !tbaa !3, !range !7, !noundef !8
  %7 = trunc nuw i8 %6 to i1
  %8 = load i8, ptr @H5_libterm_g, align 1, !range !7
  %9 = trunc nuw i8 %8 to i1
  %10 = xor i1 %9, true
  %11 = select i1 %7, i1 true, i1 %10
  br i1 %11, label %12, label %44, !prof !9

12:                                               ; preds = %4
  store ptr %0, ptr %5, align 8, !tbaa !46
  %13 = getelementptr inbounds nuw i8, ptr %5, i64 8
  store i64 %1, ptr %13, align 8, !tbaa !48
  %14 = getelementptr inbounds nuw i8, ptr %5, i64 16
  store ptr %2, ptr %14, align 8, !tbaa !49
  %15 = call ptr @H5AC_protect(ptr noundef %0, ptr noundef nonnull @H5AC_FARRAY_HDR, i64 noundef %1, ptr noundef nonnull %5, i32 noundef %3) #5
  %16 = icmp eq ptr %15, null
  br i1 %16, label %17, label %21

17:                                               ; preds = %12
  %18 = load i64, ptr @H5E_FARRAY_g, align 8, !tbaa !10
  %19 = load i64, ptr @H5E_CANTPROTECT_g, align 8, !tbaa !10
  %20 = call i32 (ptr, ptr, i32, i64, i64, ptr, ...) @H5E_printf_stack(ptr noundef nonnull @.str, ptr noundef nonnull @__func__.H5FA__hdr_protect, i32 noundef 425, i64 noundef %18, i64 noundef %19, ptr noundef nonnull @.str.15, i64 noundef %1) #5
  br label %44

21:                                               ; preds = %12
  %22 = getelementptr inbounds nuw i8, ptr %15, i64 328
  store ptr %0, ptr %22, align 8, !tbaa !28
  %23 = getelementptr inbounds nuw i8, ptr %15, i64 376
  %24 = load i8, ptr %23, align 8, !tbaa !29, !range !7, !noundef !8
  %25 = trunc nuw i8 %24 to i1
  br i1 %25, label %26, label %44

26:                                               ; preds = %21
  %27 = getelementptr inbounds nuw i8, ptr %15, i64 384
  %28 = load ptr, ptr %27, align 8, !tbaa !37
  %29 = icmp eq ptr %28, null
  br i1 %29, label %30, label %44

30:                                               ; preds = %26
  %31 = call ptr @H5AC_proxy_entry_create() #5
  store ptr %31, ptr %27, align 8, !tbaa !37
  %32 = icmp eq ptr %31, null
  br i1 %32, label %33, label %37

33:                                               ; preds = %30
  %34 = load i64, ptr @H5E_FARRAY_g, align 8, !tbaa !10
  %35 = load i64, ptr @H5E_CANTCREATE_g, align 8, !tbaa !10
  %36 = call i32 (ptr, ptr, i32, i64, i64, ptr, ...) @H5E_printf_stack(ptr noundef nonnull @.str, ptr noundef nonnull @__func__.H5FA__hdr_protect, i32 noundef 432, i64 noundef %34, i64 noundef %35, ptr noundef nonnull @.str.6) #5
  br label %44

37:                                               ; preds = %30
  %38 = call i32 @H5AC_proxy_entry_add_child(ptr noundef nonnull %31, ptr noundef %0, ptr noundef nonnull %15) #5
  %39 = icmp slt i32 %38, 0
  br i1 %39, label %40, label %44

40:                                               ; preds = %37
  %41 = load i64, ptr @H5E_FARRAY_g, align 8, !tbaa !10
  %42 = load i64, ptr @H5E_CANTSET_g, align 8, !tbaa !10
  %43 = call i32 (ptr, ptr, i32, i64, i64, ptr, ...) @H5E_printf_stack(ptr noundef nonnull @.str, ptr noundef nonnull @__func__.H5FA__hdr_protect, i32 noundef 437, i64 noundef %41, i64 noundef %42, ptr noundef nonnull @.str.8) #5
  br label %44

44:                                               ; preds = %21, %26, %37, %17, %33, %40, %4
  %.0 = phi ptr [ null, %17 ], [ null, %33 ], [ null, %40 ], [ null, %4 ], [ %15, %37 ], [ %15, %26 ], [ %15, %21 ]
  call void @llvm.lifetime.end.p0(i64 24, ptr nonnull %5) #5
  ret ptr %.0
}